target datalayout = "e-m:e-p270:32:32-p271:32:32-p272:64:64-i64:64-i128:128-f80:128-n8:16:32:64-S128"
target triple = "x86_64-pc-linux-gnu"

%struct.HUFv05_DEltX2 = type { i8, i8 }

; Function Attrs: nounwind uwtable
define internal i32 @ERR_isError(i64 noundef %0) #0 {
  %2 = alloca i64, align 8
  store i64 %0, ptr %2, align 8, !tbaa !29
  %3 = load i64, ptr %2, align 8, !tbaa !29
  %4 = icmp ugt i64 %3, -120
  %5 = zext i1 %4 to i32
  ret i32 %5
}

; Function Attrs: nounwind uwtable
define i32 @HUFv05_isError(i64 noundef %0) #0 {
  %2 = alloca i64, align 8
  store i64 %0, ptr %2, align 8, !tbaa !29
  %3 = load i64, ptr %2, align 8, !tbaa !29
  %4 = call i32 @ERR_isError(i64 noundef %3)
  ret i32 %4
}

; Function Attrs: nounwind uwtable
define i64 @HUFv05_readDTableX2(ptr noundef %0, ptr noundef %1, i64 noundef %2) #0 {
  %4 = alloca i64, align 8
  %5 = alloca ptr, align 8
  %6 = alloca ptr, align 8
  %7 = alloca i64, align 8
  %8 = alloca [256 x i8], align 16
  %9 = alloca [17 x i32], align 16
  %10 = alloca i32, align 4
  %11 = alloca i64, align 8
  %12 = alloca i32, align 4
  %13 = alloca i32, align 4
  %14 = alloca i32, align 4
  %15 = alloca ptr, align 8
  %16 = alloca ptr, align 8
  %17 = alloca i32, align 4
  %18 = alloca i32, align 4
  %19 = alloca i32, align 4
  %20 = alloca i32, align 4
  %21 = alloca i32, align 4
  %22 = alloca %struct.HUFv05_DEltX2, align 1
  store ptr %0, ptr %5, align 8, !tbaa !10
  store ptr %1, ptr %6, align 8, !tbaa !12
  store i64 %2, ptr %7, align 8, !tbaa !29
  call void @llvm.lifetime.start.p0(i64 256, ptr %8) #11
  call void @llvm.lifetime.start.p0(i64 68, ptr %9) #11
  call void @llvm.lifetime.start.p0(i64 4, ptr %10) #11
  store i32 0, ptr %10, align 4, !tbaa !3
  call void @llvm.lifetime.start.p0(i64 8, ptr %11) #11
  call void @llvm.lifetime.start.p0(i64 4, ptr %12) #11
  store i32 0, ptr %12, align 4, !tbaa !3
  call void @llvm.lifetime.start.p0(i64 4, ptr %13) #11
  call void @llvm.lifetime.start.p0(i64 4, ptr %14) #11
  call void @llvm.lifetime.start.p0(i64 8, ptr %15) #11
  %23 = load ptr, ptr %5, align 8, !tbaa !10
  %24 = getelementptr inbounds i16, ptr %23, i64 1
  store ptr %24, ptr %15, align 8, !tbaa !12
  call void @llvm.lifetime.start.p0(i64 8, ptr %16) #11
  %25 = load ptr, ptr %15, align 8, !tbaa !12
  store ptr %25, ptr %16, align 8, !tbaa !12
  %26 = getelementptr inbounds [256 x i8], ptr %8, i64 0, i64 0
  %27 = getelementptr inbounds [17 x i32], ptr %9, i64 0, i64 0
  %28 = load ptr, ptr %6, align 8, !tbaa !12
  %29 = load i64, ptr %7, align 8, !tbaa !29
  %30 = call i64 @HUFv05_readStats(ptr noundef %26, i64 noundef 256, ptr noundef %27, ptr noundef %12, ptr noundef %10, ptr noundef %28, i64 noundef %29)
  store i64 %30, ptr %11, align 8, !tbaa !29
  %31 = load i64, ptr %11, align 8, !tbaa !29
  %32 = call i32 @HUFv05_isError(i64 noundef %31)
  %33 = icmp ne i32 %32, 0
  br i1 %33, label %34, label %36

34:                                               ; preds = %3
  %35 = load i64, ptr %11, align 8, !tbaa !29
  store i64 %35, ptr %4, align 8
  store i32 1, ptr %17, align 4
  br label %127

36:                                               ; preds = %3
  %37 = load i32, ptr %10, align 4, !tbaa !3
  %38 = load ptr, ptr %5, align 8, !tbaa !10
  %39 = getelementptr inbounds i16, ptr %38, i64 0
  %40 = load i16, ptr %39, align 2, !tbaa !13
  %41 = zext i16 %40 to i32
  %42 = icmp ugt i32 %37, %41
  br i1 %42, label %43, label %44

43:                                               ; preds = %36
  store i64 -44, ptr %4, align 8
  store i32 1, ptr %17, align 4
  br label %127

44:                                               ; preds = %36
  %45 = load i32, ptr %10, align 4, !tbaa !3
  %46 = trunc i32 %45 to i16
  %47 = load ptr, ptr %5, align 8, !tbaa !10
  %48 = getelementptr inbounds i16, ptr %47, i64 0
  store i16 %46, ptr %48, align 2, !tbaa !13
  store i32 0, ptr %14, align 4, !tbaa !3
  store i32 1, ptr %13, align 4, !tbaa !3
  br label %49

49:                                               ; preds = %68, %44
  %50 = load i32, ptr %13, align 4, !tbaa !3
  %51 = load i32, ptr %10, align 4, !tbaa !3
  %52 = icmp ule i32 %50, %51
  br i1 %52, label %53, label %71

53:                                               ; preds = %49
  call void @llvm.lifetime.start.p0(i64 4, ptr %18) #11
  %54 = load i32, ptr %14, align 4, !tbaa !3
  store i32 %54, ptr %18, align 4, !tbaa !3
  %55 = load i32, ptr %13, align 4, !tbaa !3
  %56 = zext i32 %55 to i64
  %57 = getelementptr inbounds nuw [17 x i32], ptr %9, i64 0, i64 %56
  %58 = load i32, ptr %57, align 4, !tbaa !3
  %59 = load i32, ptr %13, align 4, !tbaa !3
  %60 = sub i32 %59, 1
  %61 = shl i32 %58, %60
  %62 = load i32, ptr %14, align 4, !tbaa !3
  %63 = add i32 %62, %61
  store i32 %63, ptr %14, align 4, !tbaa !3
  %64 = load i32, ptr %18, align 4, !tbaa !3
  %65 = load i32, ptr %13, align 4, !tbaa !3
  %66 = zext i32 %65 to i64
  %67 = getelementptr inbounds nuw [17 x i32], ptr %9, i64 0, i64 %66
  store i32 %64, ptr %67, align 4, !tbaa !3
  call void @llvm.lifetime.end.p0(i64 4, ptr %18) #11
  br label %68

68:                                               ; preds = %53
  %69 = load i32, ptr %13, align 4, !tbaa !3
  %70 = add i32 %69, 1
  store i32 %70, ptr %13, align 4, !tbaa !3
  br label %49, !llvm.loop !40

71:                                               ; preds = %49
  store i32 0, ptr %13, align 4, !tbaa !3
  br label %72

72:                                               ; preds = %122, %71
  %73 = load i32, ptr %13, align 4, !tbaa !3
  %74 = load i32, ptr %12, align 4, !tbaa !3
  %75 = icmp ult i32 %73, %74
  br i1 %75, label %76, label %125

76:                                               ; preds = %72
  call void @llvm.lifetime.start.p0(i64 4, ptr %19) #11
  %77 = load i32, ptr %13, align 4, !tbaa !3
  %78 = zext i32 %77 to i64
  %79 = getelementptr inbounds nuw [256 x i8], ptr %8, i64 0, i64 %78
  %80 = load i8, ptr %79, align 1, !tbaa !24
  %81 = zext i8 %80 to i32
  store i32 %81, ptr %19, align 4, !tbaa !3
  call void @llvm.lifetime.start.p0(i64 4, ptr %20) #11
  %82 = load i32, ptr %19, align 4, !tbaa !3
  %83 = shl i32 1, %82
  %84 = ashr i32 %83, 1
  store i32 %84, ptr %20, align 4, !tbaa !3
  call void @llvm.lifetime.start.p0(i64 4, ptr %21) #11
  call void @llvm.lifetime.start.p0(i64 2, ptr %22) #11
  %85 = load i32, ptr %13, align 4, !tbaa !3
  %86 = trunc i32 %85 to i8
  %87 = getelementptr inbounds nuw %struct.HUFv05_DEltX2, ptr %22, i32 0, i32 0
  store i8 %86, ptr %87, align 1, !tbaa !41
  %88 = load i32, ptr %10, align 4, !tbaa !3
  %89 = add i32 %88, 1
  %90 = load i32, ptr %19, align 4, !tbaa !3
  %91 = sub i32 %89, %90
  %92 = trunc i32 %91 to i8
  %93 = getelementptr inbounds nuw %struct.HUFv05_DEltX2, ptr %22, i32 0, i32 1
  store i8 %92, ptr %93, align 1, !tbaa !43
  %94 = load i32, ptr %19, align 4, !tbaa !3
  %95 = zext i32 %94 to i64
  %96 = getelementptr inbounds nuw [17 x i32], ptr %9, i64 0, i64 %95
  %97 = load i32, ptr %96, align 4, !tbaa !3
  store i32 %97, ptr %21, align 4, !tbaa !3
  br label %98

98:                                               ; preds = %112, %76
  %99 = load i32, ptr %21, align 4, !tbaa !3
  %100 = load i32, ptr %19, align 4, !tbaa !3
  %101 = zext i32 %100 to i64
  %102 = getelementptr inbounds nuw [17 x i32], ptr %9, i64 0, i64 %101
  %103 = load i32, ptr %102, align 4, !tbaa !3
  %104 = load i32, ptr %20, align 4, !tbaa !3
  %105 = add i32 %103, %104
  %106 = icmp ult i32 %99, %105
  br i1 %106, label %107, label %115

107:                                              ; preds = %98
  %108 = load ptr, ptr %16, align 8, !tbaa !12
  %109 = load i32, ptr %21, align 4, !tbaa !3
  %110 = zext i32 %109 to i64
  %111 = getelementptr inbounds nuw %struct.HUFv05_DEltX2, ptr %108, i64 %110
  call void @llvm.memcpy.p0.p0.i64(ptr align 1 %111, ptr align 1 %22, i64 2, i1 false), !tbaa.struct !44
  br label %112

112:                                              ; preds = %107
  %113 = load i32, ptr %21, align 4, !tbaa !3
  %114 = add i32 %113, 1
  store i32 %114, ptr %21, align 4, !tbaa !3
  br label %98, !llvm.loop !45

115:                                              ; preds = %98
  %116 = load i32, ptr %20, align 4, !tbaa !3
  %117 = load i32, ptr %19, align 4, !tbaa !3
  %118 = zext i32 %117 to i64
  %119 = getelementptr inbounds nuw [17 x i32], ptr %9, i64 0, i64 %118
  %120 = load i32, ptr %119, align 4, !tbaa !3
  %121 = add i32 %120, %116
  store i32 %121, ptr %119, align 4, !tbaa !3
  call void @llvm.lifetime.end.p0(i64 2, ptr %22) #11
  call void @llvm.lifetime.end.p0(i64 4, ptr %21) #11
  call void @llvm.lifetime.end.p0(i64 4, ptr %20) #11
  call void @llvm.lifetime.end.p0(i64 4, ptr %19) #11
  br label %122

122:                                              ; preds = %115
  %123 = load i32, ptr %13, align 4, !tbaa !3
  %124 = add i32 %123, 1
  store i32 %124, ptr %13, align 4, !tbaa !3
  br label %72, !llvm.loop !46

125:                                              ; preds = %72
  %126 = load i64, ptr %11, align 8, !tbaa !29
  store i64 %126, ptr %4, align 8
  store i32 1, ptr %17, align 4
  br label %127

127:                                              ; preds = %125, %43, %34
  call void @llvm.lifetime.end.p0(i64 8, ptr %16) #11
  call void @llvm.lifetime.end.p0(i64 8, ptr %15) #11
  call void @llvm.lifetime.end.p0(i64 4, ptr %14) #11
  call void @llvm.lifetime.end.p0(i64 4, ptr %13) #11
  call void @llvm.lifetime.end.p0(i64 4, ptr %12) #11
  call void @llvm.lifetime.end.p0(i64 8, ptr %11) #11
  call void @llvm.lifetime.end.p0(i64 4, ptr %10) #11
  call void @llvm.lifetime.end.p0(i64 68, ptr %9) #11
  call void @llvm.lifetime.end.p0(i64 256, ptr %8) #11
  %128 = load i64, ptr %4, align 8
  ret i64 %128
}

; Function Attrs: nounwind uwtable
define i64 @HUFv05_decompress4X2(ptr noundef %0, i64 noundef %1, ptr noundef %2, i64 noundef %3) #0 {
  %5 = alloca i64, align 8
  %6 = alloca ptr, align 8
  %7 = alloca i64, align 8
  %8 = alloca ptr, align 8
  %9 = alloca i64, align 8
  %10 = alloca [4097 x i16], align 16
  %11 = alloca ptr, align 8
  %12 = alloca i64, align 8
  %13 = alloca i32, align 4
  store ptr %0, ptr %6, align 8, !tbaa !12
  store i64 %1, ptr %7, align 8, !tbaa !29
  store ptr %2, ptr %8, align 8, !tbaa !12
  store i64 %3, ptr %9, align 8, !tbaa !29
  call void @llvm.lifetime.start.p0(i64 8194, ptr %10) #11
  call void @llvm.memset.p0.i64(ptr align 16 %10, i8 0, i64 8194, i1 false)
  %14 = getelementptr inbounds <{ i16, [4096 x i16] }>, ptr %10, i32 0, i32 0
  store i16 12, ptr %14, align 16
  call void @llvm.lifetime.start.p0(i64 8, ptr %11) #11
  %15 = load ptr, ptr %8, align 8, !tbaa !12
  store ptr %15, ptr %11, align 8, !tbaa !31
  call void @llvm.lifetime.start.p0(i64 8, ptr %12) #11
  %16 = getelementptr inbounds [4097 x i16], ptr %10, i64 0, i64 0
  %17 = load ptr, ptr %8, align 8, !tbaa !12
  %18 = load i64, ptr %9, align 8, !tbaa !29
  %19 = call i64 @HUFv05_readDTableX2(ptr noundef %16, ptr noundef %17, i64 noundef %18)
  store i64 %19, ptr %12, align 8, !tbaa !29
  %20 = load i64, ptr %12, align 8, !tbaa !29
  %21 = call i32 @HUFv05_isError(i64 noundef %20)
  %22 = icmp ne i32 %21, 0
  br i1 %22, label %23, label %25

23:                                               ; preds = %4
  %24 = load i64, ptr %12, align 8, !tbaa !29
  store i64 %24, ptr %5, align 8
  store i32 1, ptr %13, align 4
  br label %43

25:                                               ; preds = %4
  %26 = load i64, ptr %12, align 8, !tbaa !29
  %27 = load i64, ptr %9, align 8, !tbaa !29
  %28 = icmp uge i64 %26, %27
  br i1 %28, label %29, label %30

29:                                               ; preds = %25
  store i64 -72, ptr %5, align 8
  store i32 1, ptr %13, align 4
  br label %43

30:                                               ; preds = %25
  %31 = load i64, ptr %12, align 8, !tbaa !29
  %32 = load ptr, ptr %11, align 8, !tbaa !31
  %33 = getelementptr inbounds nuw i8, ptr %32, i64 %31
  store ptr %33, ptr %11, align 8, !tbaa !31
  %34 = load i64, ptr %12, align 8, !tbaa !29
  %35 = load i64, ptr %9, align 8, !tbaa !29
  %36 = sub i64 %35, %34
  store i64 %36, ptr %9, align 8, !tbaa !29
  %37 = load ptr, ptr %6, align 8, !tbaa !12
  %38 = load i64, ptr %7, align 8, !tbaa !29
  %39 = load ptr, ptr %11, align 8, !tbaa !31
  %40 = load i64, ptr %9, align 8, !tbaa !29
  %41 = getelementptr inbounds [4097 x i16], ptr %10, i64 0, i64 0
  %42 = call i64 @HUFv05_decompress4X2_usingDTable(ptr noundef %37, i64 noundef %38, ptr noundef %39, i64 noundef %40, ptr noundef %41)
  store i64 %42, ptr %5, align 8
  store i32 1, ptr %13, align 4
  br label %43

43:                                               ; preds = %30, %29, %23
  call void @llvm.lifetime.end.p0(i64 8, ptr %12) #11
  call void @llvm.lifetime.end.p0(i64 8, ptr %11) #11
  call void @llvm.lifetime.end.p0(i64 8194, ptr %10) #11
  %44 = load i64, ptr %5, align 8
  ret i64 %44
}